target datalayout = "e-m:e-p270:32:32-p271:32:32-p272:64:64-i64:64-i128:128-f80:128-n8:16:32:64-S128"
target triple = "x86_64-pc-linux-gnu"

%"struct.mitsuba::ThreadNotifier" = type { i8 }

@_ZN7mitsubaL8notifierE = internal thread_local global %"struct.mitsuba::ThreadNotifier" zeroinitializer, align 1
@_ZN7mitsubaL4selfE = internal thread_local global ptr null, align 8
@_ZTHN7mitsubaL8notifierE = internal alias void (), ptr @__tls_init

; Function Attrs: mustprogress nounwind uwtable
define linkonce_odr hidden void @_ZN7mitsuba14ThreadNotifier18ensure_initializedEv(ptr noundef nonnull align 1 dereferenceable(1) %0) #1 comdat align 2 {
  %2 = alloca ptr, align 8
  store ptr %0, ptr %2, align 8
  ret void
}

; Function Attrs: uwtable
define internal noundef ptr @_ZTWN7mitsubaL8notifierE() #10 {
  call void @_ZTHN7mitsubaL8notifierE()
  %1 = call align 1 ptr @llvm.threadlocal.address.p0(ptr align 1 @_ZN7mitsubaL8notifierE)
  ret ptr %1
}

; Function Attrs: mustprogress uwtable
define noundef ptr @_ZN7mitsuba6Thread6threadEv() #3 align 2 {
  %1 = alloca ptr, align 8
  %2 = call ptr @_ZTWN7mitsubaL8notifierE()
  call void @_ZN7mitsuba14ThreadNotifier18ensure_initializedEv(ptr noundef nonnull align 1 dereferenceable(1) %2)
  %3 = call align 8 ptr @llvm.threadlocal.address.p0(ptr align 8 @_ZN7mitsubaL4selfE)
  %4 = load ptr, ptr %3, align 8
  store ptr %4, ptr %1, align 8
  %5 = load ptr, ptr %1, align 8
  ret ptr %5
}