; Function Attrs: uwtable
define noundef ptr @_ZN7mitsuba6Thread6threadEv() local_unnamed_addr #16 align 2 {
  %.b.i.i = load i1, ptr @__tls_guard, align 1
  br i1 %.b.i.i, label %_ZTWN7mitsubaL8notifierE.exit, label %1, !prof !4

1:                                                ; preds = %0
  store i1 true, ptr @__tls_guard, align 1
  tail call fastcc void @__cxx_global_var_init.1()
  br label %_ZTWN7mitsubaL8notifierE.exit

_ZTWN7mitsubaL8notifierE.exit:                    ; preds = %0, %1
  %2 = tail call align 8 ptr @llvm.threadlocal.address.p0(ptr align 8 @_ZN7mitsubaL4selfE)
  %3 = load ptr, ptr %2, align 8
  ret ptr %3
}